target datalayout = "e-m:e-p270:32:32-p271:32:32-p272:64:64-i64:64-i128:128-f80:128-n8:16:32:64-S128"
target triple = "x86_64-pc-linux-gnu"

%struct._output_fields = type { i8, i8, i8, i8, i8, ptr, ptr, ptr, ptr, ptr, i8, i8, i8 }
%struct._GPtrArray = type { ptr, i32 }

; Function Attrs: nounwind null_pointer_is_valid sspstrong uwtable
define i64 @output_fields_num_fields(ptr noundef %0) #7 {
  %2 = alloca i64, align 8
  %3 = alloca ptr, align 8
  store ptr %0, ptr %3, align 8
  br label %4

4:                                                ; preds = %1
  br label %5

5:                                                ; preds = %4
  %6 = load ptr, ptr %3, align 8
  %7 = getelementptr inbounds nuw %struct._output_fields, ptr %6, i32 0, i32 5
  %8 = load ptr, ptr %7, align 8
  %9 = icmp eq ptr null, %8
  br i1 %9, label %10, label %11

10:                                               ; preds = %5
  store i64 0, ptr %2, align 8
  br label %18

11:                                               ; preds = %5
  %12 = load ptr, ptr %3, align 8
  %13 = getelementptr inbounds nuw %struct._output_fields, ptr %12, i32 0, i32 5
  %14 = load ptr, ptr %13, align 8
  %15 = getelementptr inbounds nuw %struct._GPtrArray, ptr %14, i32 0, i32 1
  %16 = load i32, ptr %15, align 8
  %17 = zext i32 %16 to i64
  store i64 %17, ptr %2, align 8
  br label %18

18:                                               ; preds = %11, %10
  %19 = load i64, ptr %2, align 8
  ret i64 %19
}