; Function Attrs: mustprogress nofree norecurse nosync nounwind null_pointer_is_valid sspstrong willreturn memory(read, inaccessiblemem: none) uwtable
define range(i64 0, 4294967296) i64 @output_fields_num_fields(ptr noundef readonly captures(none) %0) local_unnamed_addr #8 {
  %2 = getelementptr inbounds nuw i8, ptr %0, i64 8
  %3 = load ptr, ptr %2, align 8
  %4 = icmp eq ptr %3, null
  br i1 %4, label %9, label %5

5:                                                ; preds = %1
  %6 = getelementptr inbounds nuw i8, ptr %3, i64 8
  %7 = load i32, ptr %6, align 8
  %8 = zext i32 %7 to i64
  br label %9

9:                                                ; preds = %1, %5
  %.0 = phi i64 [ %8, %5 ], [ 0, %1 ]
  ret i64 %.0
}